; Function Attrs: mustprogress uwtable
define noundef i32 @_ZN3nix9getSchemaENSt7__cxx1112basic_stringIcSt11char_traitsIcESaIcEEE(ptr noundef nonnull %0) local_unnamed_addr #5 personality ptr @__gxx_personality_v0 {
  %2 = alloca %"class.std::__cxx11::basic_string", align 8
  %3 = alloca %"class.std::__cxx11::basic_string", align 8
  %4 = alloca %"class.std::allocator", align 1
  %5 = tail call noundef zeroext i1 @_ZN3nix10pathExistsERKNSt7__cxx1112basic_stringIcSt11char_traitsIcESaIcEEE(ptr noundef nonnull align 8 dereferenceable(32) %0)
  br i1 %5, label %6, label %30

6:                                                ; preds = %1
  call void @_ZN3nix8readFileERKNSt7__cxx1112basic_stringIcSt11char_traitsIcESaIcEEE(ptr dead_on_unwind nonnull writable sret(%"class.std::__cxx11::basic_string") align 8 %2, ptr noundef nonnull align 8 dereferenceable(32) %0)
  %7 = load ptr, ptr %2, align 8
  %8 = getelementptr inbounds i8, ptr %2, i64 8
  %9 = load i64, ptr %8, align 8
  %10 = invoke i64 @_ZN3nix10string2IntIiEESt8optionalIT_ESt17basic_string_viewIcSt11char_traitsIcEE(i64 %9, ptr %7)
          to label %11 unwind label %17

11:                                               ; preds = %6
  %.sroa.0.0.extract.trunc = trunc i64 %10 to i32
  %12 = and i64 %10, 4294967296
  %.not = icmp eq i64 %12, 0
  br i1 %.not, label %13, label %23

13:                                               ; preds = %11
  %14 = call ptr @__cxa_allocate_exception(i64 376) #33
  call void @_ZNSaIcEC1Ev(ptr noundef nonnull align 1 dereferenceable(1) %4) #33
  invoke void @_ZNSt7__cxx1112basic_stringIcSt11char_traitsIcESaIcEEC2IS3_EEPKcRKS3_(ptr noundef nonnull align 8 dereferenceable(32) %3, ptr noundef nonnull @.str.12, ptr noundef nonnull align 1 dereferenceable(1) %4)
          to label %15 unwind label %.thread

15:                                               ; preds = %13
  invoke void @_ZN3nix5ErrorCI2NS_9BaseErrorEIJNSt7__cxx1112basic_stringIcSt11char_traitsIcESaIcEEEEEERKS6_DpRKT_(ptr noundef nonnull align 8 dereferenceable(376) %14, ptr noundef nonnull align 8 dereferenceable(32) %3, ptr noundef nonnull align 8 dereferenceable(32) %0)
          to label %16 unwind label %20

16:                                               ; preds = %15
  invoke void @__cxa_throw(ptr nonnull %14, ptr nonnull @_ZTIN3nix5ErrorE, ptr nonnull @_ZN3nix5ErrorD2Ev) #34
          to label %31 unwind label %20

17:                                               ; preds = %6
  %18 = landingpad { ptr, i32 }
          cleanup
  br label %29

.thread:                                          ; preds = %13
  %19 = landingpad { ptr, i32 }
          cleanup
  call void @_ZNSaIcED1Ev(ptr noundef nonnull align 1 dereferenceable(1) %4) #33
  br label %22

20:                                               ; preds = %15, %16
  %.0 = phi i1 [ false, %16 ], [ true, %15 ]
  %21 = landingpad { ptr, i32 }
          cleanup
  call void @_ZNSt7__cxx1112basic_stringIcSt11char_traitsIcESaIcEED2Ev(ptr noundef nonnull align 8 dereferenceable(32) %3) #33
  call void @_ZNSaIcED1Ev(ptr noundef nonnull align 1 dereferenceable(1) %4) #33
  br i1 %.0, label %22, label %29

22:                                               ; preds = %.thread, %20
  %.pn12 = phi { ptr, i32 } [ %19, %.thread ], [ %21, %20 ]
  call void @__cxa_free_exception(ptr %14) #33
  br label %29

23:                                               ; preds = %11
  %24 = load ptr, ptr %2, align 8
  %25 = getelementptr inbounds i8, ptr %2, i64 16
  %26 = icmp eq ptr %24, %25
  br i1 %26, label %_ZNKSt7__cxx1112basic_stringIcSt11char_traitsIcESaIcEE11_M_is_localEv.exit.thread.i.i, label %_ZNKSt7__cxx1112basic_stringIcSt11char_traitsIcESaIcEE11_M_is_localEv.exit.i.i

_ZNKSt7__cxx1112basic_stringIcSt11char_traitsIcESaIcEE11_M_is_localEv.exit.thread.i.i: ; preds = %23
  %27 = load i64, ptr %8, align 8
  %28 = icmp ult i64 %27, 16
  call void @llvm.assume(i1 %28)
  br label %_ZNSt7__cxx1112basic_stringIcSt11char_traitsIcESaIcEED2Ev.exit

_ZNKSt7__cxx1112basic_stringIcSt11char_traitsIcESaIcEE11_M_is_localEv.exit.i.i: ; preds = %23
  call void @_ZdlPv(ptr noundef %24) #36
  br label %_ZNSt7__cxx1112basic_stringIcSt11char_traitsIcESaIcEED2Ev.exit

_ZNSt7__cxx1112basic_stringIcSt11char_traitsIcESaIcEED2Ev.exit: ; preds = %_ZNKSt7__cxx1112basic_stringIcSt11char_traitsIcESaIcEE11_M_is_localEv.exit.thread.i.i, %_ZNKSt7__cxx1112basic_stringIcSt11char_traitsIcESaIcEE11_M_is_localEv.exit.i.i
  call void @_ZNSaIcED2Ev(ptr noundef nonnull align 1 dereferenceable(1) %2) #33
  br label %30

29:                                               ; preds = %20, %22, %17
  %.pn.pn = phi { ptr, i32 } [ %.pn12, %22 ], [ %21, %20 ], [ %18, %17 ]
  call void @_ZNSt7__cxx1112basic_stringIcSt11char_traitsIcESaIcEED2Ev(ptr noundef nonnull align 8 dereferenceable(32) %2) #33
  resume { ptr, i32 } %.pn.pn

30:                                               ; preds = %_ZNSt7__cxx1112basic_stringIcSt11char_traitsIcESaIcEED2Ev.exit, %1
  %.07 = phi i32 [ %.sroa.0.0.extract.trunc, %_ZNSt7__cxx1112basic_stringIcSt11char_traitsIcESaIcEED2Ev.exit ], [ 0, %1 ]
  ret i32 %.07

31:                                               ; preds = %16
  unreachable
}